target datalayout = "e-m:e-p270:32:32-p271:32:32-p272:64:64-i64:64-i128:128-f80:128-n8:16:32:64-S128"
target triple = "x86_64-pc-linux-gnu"

@.str = private unnamed_addr constant [7 x i8] c"1.0.21\00", align 1

; Function Attrs: nounwind ssp uwtable
define dso_local ptr @sodium_version_string() #0 {
  ret ptr @.str
}

; Function Attrs: nounwind ssp uwtable
define dso_local i32 @sodium_library_version_major() #0 {
  ret i32 28
}

; Function Attrs: nounwind ssp uwtable
define dso_local i32 @sodium_library_version_minor() #0 {
  ret i32 0
}

; Function Attrs: nounwind ssp uwtable
define dso_local i32 @sodium_library_minimal() #0 {
  ret i32 0
}


!llvm.module.flags = !{!0, !1, !2, !3}

!0 = !{i32 1, !"wchar_size", i32 4}
!1 = !{i32 8, !"PIC Level", i32 2}
!2 = !{i32 7, !"PIE Level", i32 2}
!3 = !{i32 7, !"uwtable", i32 2}
